target datalayout = "e-m:e-p270:32:32-p271:32:32-p272:64:64-i64:64-i128:128-f80:128-n8:16:32:64-S128"
target triple = "x86_64-pc-linux-gnu"

@hf_cdma_allocation_duration_1 = internal global i32 0, align 4
@hf_cdma_allocation_uiuc_1 = internal global i32 0, align 4
@hf_cdma_allocation_repetition_1 = internal global i32 0, align 4
@hf_cdma_allocation_frame_number_index_1 = internal global i32 0, align 4
@hf_cdma_allocation_ranging_code_1 = internal global i32 0, align 4
@hf_cdma_allocation_ranging_symbol_1 = internal global i32 0, align 4
@hf_cdma_allocation_ranging_subchannel_1 = internal global i32 0, align 4
@hf_cdma_allocation_bw_req_1 = internal global i32 0, align 4
@hf_cdma_allocation_duration = internal global i32 0, align 4
@hf_cdma_allocation_uiuc = internal global i32 0, align 4
@hf_cdma_allocation_repetition = internal global i32 0, align 4
@hf_cdma_allocation_frame_number_index = internal global i32 0, align 4
@hf_cdma_allocation_ranging_code = internal global i32 0, align 4
@hf_cdma_allocation_ranging_symbol = internal global i32 0, align 4
@hf_cdma_allocation_ranging_subchannel = internal global i32 0, align 4
@hf_cdma_allocation_bw_req = internal global i32 0, align 4

; Function Attrs: null_pointer_is_valid sspstrong uwtable
define hidden i32 @wimax_cdma_allocation_ie_decoder(ptr noundef %0, ptr noundef %1, ptr noundef %2, i32 noundef %3, i32 noundef %4) #0 {
  %6 = alloca ptr, align 8
  %7 = alloca ptr, align 8
  %8 = alloca ptr, align 8
  %9 = alloca i32, align 4
  %10 = alloca i32, align 4
  store ptr %0, ptr %6, align 8
  store ptr %1, ptr %7, align 8
  store ptr %2, ptr %8, align 8
  store i32 %3, ptr %9, align 4
  store i32 %4, ptr %10, align 4
  %11 = load i32, ptr %10, align 4
  %12 = and i32 %11, 1
  %13 = icmp ne i32 %12, 0
  br i1 %13, label %14, label %55

14:                                               ; preds = %5
  %15 = load ptr, ptr %6, align 8
  %16 = load i32, ptr @hf_cdma_allocation_duration_1, align 4
  %17 = load ptr, ptr %8, align 8
  %18 = load i32, ptr %9, align 4
  %19 = call ptr @proto_tree_add_item(ptr noundef %15, i32 noundef %16, ptr noundef %17, i32 noundef %18, i32 noundef 2, i32 noundef 0)
  %20 = load ptr, ptr %6, align 8
  %21 = load i32, ptr @hf_cdma_allocation_uiuc_1, align 4
  %22 = load ptr, ptr %8, align 8
  %23 = load i32, ptr %9, align 4
  %24 = call ptr @proto_tree_add_item(ptr noundef %20, i32 noundef %21, ptr noundef %22, i32 noundef %23, i32 noundef 2, i32 noundef 0)
  %25 = load ptr, ptr %6, align 8
  %26 = load i32, ptr @hf_cdma_allocation_repetition_1, align 4
  %27 = load ptr, ptr %8, align 8
  %28 = load i32, ptr %9, align 4
  %29 = call ptr @proto_tree_add_item(ptr noundef %25, i32 noundef %26, ptr noundef %27, i32 noundef %28, i32 noundef 2, i32 noundef 0)
  %30 = load ptr, ptr %6, align 8
  %31 = load i32, ptr @hf_cdma_allocation_frame_number_index_1, align 4
  %32 = load ptr, ptr %8, align 8
  %33 = load i32, ptr %9, align 4
  %34 = call ptr @proto_tree_add_item(ptr noundef %30, i32 noundef %31, ptr noundef %32, i32 noundef %33, i32 noundef 4, i32 noundef 0)
  %35 = load ptr, ptr %6, align 8
  %36 = load i32, ptr @hf_cdma_allocation_ranging_code_1, align 4
  %37 = load ptr, ptr %8, align 8
  %38 = load i32, ptr %9, align 4
  %39 = call ptr @proto_tree_add_item(ptr noundef %35, i32 noundef %36, ptr noundef %37, i32 noundef %38, i32 noundef 4, i32 noundef 0)
  %40 = load ptr, ptr %6, align 8
  %41 = load i32, ptr @hf_cdma_allocation_ranging_symbol_1, align 4
  %42 = load ptr, ptr %8, align 8
  %43 = load i32, ptr %9, align 4
  %44 = call ptr @proto_tree_add_item(ptr noundef %40, i32 noundef %41, ptr noundef %42, i32 noundef %43, i32 noundef 4, i32 noundef 0)
  %45 = load ptr, ptr %6, align 8
  %46 = load i32, ptr @hf_cdma_allocation_ranging_subchannel_1, align 4
  %47 = load ptr, ptr %8, align 8
  %48 = load i32, ptr %9, align 4
  %49 = call ptr @proto_tree_add_item(ptr noundef %45, i32 noundef %46, ptr noundef %47, i32 noundef %48, i32 noundef 4, i32 noundef 0)
  %50 = load ptr, ptr %6, align 8
  %51 = load i32, ptr @hf_cdma_allocation_bw_req_1, align 4
  %52 = load ptr, ptr %8, align 8
  %53 = load i32, ptr %9, align 4
  %54 = call ptr @proto_tree_add_item(ptr noundef %50, i32 noundef %51, ptr noundef %52, i32 noundef %53, i32 noundef 4, i32 noundef 0)
  br label %96

55:                                               ; preds = %5
  %56 = load ptr, ptr %6, align 8
  %57 = load i32, ptr @hf_cdma_allocation_duration, align 4
  %58 = load ptr, ptr %8, align 8
  %59 = load i32, ptr %9, align 4
  %60 = call ptr @proto_tree_add_item(ptr noundef %56, i32 noundef %57, ptr noundef %58, i32 noundef %59, i32 noundef 2, i32 noundef 0)
  %61 = load ptr, ptr %6, align 8
  %62 = load i32, ptr @hf_cdma_allocation_uiuc, align 4
  %63 = load ptr, ptr %8, align 8
  %64 = load i32, ptr %9, align 4
  %65 = call ptr @proto_tree_add_item(ptr noundef %61, i32 noundef %62, ptr noundef %63, i32 noundef %64, i32 noundef 2, i32 noundef 0)
  %66 = load ptr, ptr %6, align 8
  %67 = load i32, ptr @hf_cdma_allocation_repetition, align 4
  %68 = load ptr, ptr %8, align 8
  %69 = load i32, ptr %9, align 4
  %70 = call ptr @proto_tree_add_item(ptr noundef %66, i32 noundef %67, ptr noundef %68, i32 noundef %69, i32 noundef 2, i32 noundef 0)
  %71 = load ptr, ptr %6, align 8
  %72 = load i32, ptr @hf_cdma_allocation_frame_number_index, align 4
  %73 = load ptr, ptr %8, align 8
  %74 = load i32, ptr %9, align 4
  %75 = call ptr @proto_tree_add_item(ptr noundef %71, i32 noundef %72, ptr noundef %73, i32 noundef %74, i32 noundef 2, i32 noundef 0)
  %76 = load ptr, ptr %6, align 8
  %77 = load i32, ptr @hf_cdma_allocation_ranging_code, align 4
  %78 = load ptr, ptr %8, align 8
  %79 = load i32, ptr %9, align 4
  %80 = call ptr @proto_tree_add_item(ptr noundef %76, i32 noundef %77, ptr noundef %78, i32 noundef %79, i32 noundef 1, i32 noundef 0)
  %81 = load ptr, ptr %6, align 8
  %82 = load i32, ptr @hf_cdma_allocation_ranging_symbol, align 4
  %83 = load ptr, ptr %8, align 8
  %84 = load i32, ptr %9, align 4
  %85 = call ptr @proto_tree_add_item(ptr noundef %81, i32 noundef %82, ptr noundef %83, i32 noundef %84, i32 noundef 1, i32 noundef 0)
  %86 = load ptr, ptr %6, align 8
  %87 = load i32, ptr @hf_cdma_allocation_ranging_subchannel, align 4
  %88 = load ptr, ptr %8, align 8
  %89 = load i32, ptr %9, align 4
  %90 = call ptr @proto_tree_add_item(ptr noundef %86, i32 noundef %87, ptr noundef %88, i32 noundef %89, i32 noundef 1, i32 noundef 0)
  %91 = load ptr, ptr %6, align 8
  %92 = load i32, ptr @hf_cdma_allocation_bw_req, align 4
  %93 = load ptr, ptr %8, align 8
  %94 = load i32, ptr %9, align 4
  %95 = call ptr @proto_tree_add_item(ptr noundef %91, i32 noundef %92, ptr noundef %93, i32 noundef %94, i32 noundef 1, i32 noundef 0)
  br label %96

96:                                               ; preds = %55, %14
  ret i32 8
}