; Function Attrs: null_pointer_is_valid sspstrong uwtable
define hidden noundef i32 @wimax_cdma_allocation_ie_decoder(ptr noundef %0, ptr readnone captures(none) %1, ptr noundef %2, i32 noundef %3, i32 noundef %4) local_unnamed_addr #0 {
  %6 = and i32 %4, 1
  %.not = icmp eq i32 %6, 0
  %. = select i1 %.not, i32 2, i32 4
  %.53 = select i1 %.not, i32 1, i32 4
  %hf_cdma_allocation_duration.val = load i32, ptr @hf_cdma_allocation_duration, align 4
  %hf_cdma_allocation_duration_1.val = load i32, ptr @hf_cdma_allocation_duration_1, align 4
  %7 = select i1 %.not, i32 %hf_cdma_allocation_duration.val, i32 %hf_cdma_allocation_duration_1.val
  %8 = tail call ptr @proto_tree_add_item(ptr noundef %0, i32 noundef %7, ptr noundef %2, i32 noundef %3, i32 noundef 2, i32 noundef 0)
  %hf_cdma_allocation_uiuc.val = load i32, ptr @hf_cdma_allocation_uiuc, align 4
  %hf_cdma_allocation_uiuc_1.val = load i32, ptr @hf_cdma_allocation_uiuc_1, align 4
  %9 = select i1 %.not, i32 %hf_cdma_allocation_uiuc.val, i32 %hf_cdma_allocation_uiuc_1.val
  %10 = tail call ptr @proto_tree_add_item(ptr noundef %0, i32 noundef %9, ptr noundef %2, i32 noundef %3, i32 noundef 2, i32 noundef 0)
  %hf_cdma_allocation_repetition.val = load i32, ptr @hf_cdma_allocation_repetition, align 4
  %hf_cdma_allocation_repetition_1.val = load i32, ptr @hf_cdma_allocation_repetition_1, align 4
  %11 = select i1 %.not, i32 %hf_cdma_allocation_repetition.val, i32 %hf_cdma_allocation_repetition_1.val
  %12 = tail call ptr @proto_tree_add_item(ptr noundef %0, i32 noundef %11, ptr noundef %2, i32 noundef %3, i32 noundef 2, i32 noundef 0)
  %hf_cdma_allocation_frame_number_index.val = load i32, ptr @hf_cdma_allocation_frame_number_index, align 4
  %hf_cdma_allocation_frame_number_index_1.val = load i32, ptr @hf_cdma_allocation_frame_number_index_1, align 4
  %13 = select i1 %.not, i32 %hf_cdma_allocation_frame_number_index.val, i32 %hf_cdma_allocation_frame_number_index_1.val
  %14 = tail call ptr @proto_tree_add_item(ptr noundef %0, i32 noundef %13, ptr noundef %2, i32 noundef %3, i32 noundef %., i32 noundef 0)
  %hf_cdma_allocation_ranging_code.val = load i32, ptr @hf_cdma_allocation_ranging_code, align 4
  %hf_cdma_allocation_ranging_code_1.val = load i32, ptr @hf_cdma_allocation_ranging_code_1, align 4
  %15 = select i1 %.not, i32 %hf_cdma_allocation_ranging_code.val, i32 %hf_cdma_allocation_ranging_code_1.val
  %16 = tail call ptr @proto_tree_add_item(ptr noundef %0, i32 noundef %15, ptr noundef %2, i32 noundef %3, i32 noundef %.53, i32 noundef 0)
  %hf_cdma_allocation_ranging_symbol.val = load i32, ptr @hf_cdma_allocation_ranging_symbol, align 4
  %hf_cdma_allocation_ranging_symbol_1.val = load i32, ptr @hf_cdma_allocation_ranging_symbol_1, align 4
  %17 = select i1 %.not, i32 %hf_cdma_allocation_ranging_symbol.val, i32 %hf_cdma_allocation_ranging_symbol_1.val
  %18 = tail call ptr @proto_tree_add_item(ptr noundef %0, i32 noundef %17, ptr noundef %2, i32 noundef %3, i32 noundef %.53, i32 noundef 0)
  %hf_cdma_allocation_ranging_subchannel.val = load i32, ptr @hf_cdma_allocation_ranging_subchannel, align 4
  %hf_cdma_allocation_ranging_subchannel_1.val = load i32, ptr @hf_cdma_allocation_ranging_subchannel_1, align 4
  %19 = select i1 %.not, i32 %hf_cdma_allocation_ranging_subchannel.val, i32 %hf_cdma_allocation_ranging_subchannel_1.val
  %20 = tail call ptr @proto_tree_add_item(ptr noundef %0, i32 noundef %19, ptr noundef %2, i32 noundef %3, i32 noundef %.53, i32 noundef 0)
  %hf_cdma_allocation_bw_req.val = load i32, ptr @hf_cdma_allocation_bw_req, align 4
  %hf_cdma_allocation_bw_req_1.val = load i32, ptr @hf_cdma_allocation_bw_req_1, align 4
  %21 = select i1 %.not, i32 %hf_cdma_allocation_bw_req.val, i32 %hf_cdma_allocation_bw_req_1.val
  %22 = tail call ptr @proto_tree_add_item(ptr noundef %0, i32 noundef %21, ptr noundef %2, i32 noundef %3, i32 noundef %.53, i32 noundef 0)
  ret i32 8
}